target datalayout = "e-m:e-p270:32:32-p271:32:32-p272:64:64-i64:64-i128:128-f80:128-n8:16:32:64-S128"
target triple = "x86_64-pc-linux-gnu"

%"class.llvm::cl::Option" = type { ptr, i16, i16, i16, i16, %"class.llvm::StringRef", %"class.llvm::StringRef", %"class.llvm::StringRef", %"class.llvm::SmallVector", %"class.llvm::SmallPtrSet" }
%"class.llvm::StringRef" = type { ptr, i64 }
%"class.llvm::SmallVector" = type { %"class.llvm::SmallVectorImpl", %"struct.llvm::SmallVectorStorage" }
%"class.llvm::SmallVectorImpl" = type { %"class.llvm::SmallVectorTemplateBase" }
%"class.llvm::SmallVectorTemplateBase" = type { %"class.llvm::SmallVectorTemplateCommon" }
%"class.llvm::SmallVectorTemplateCommon" = type { %"class.llvm::SmallVectorBase" }
%"class.llvm::SmallVectorBase" = type { ptr, i32, i32 }
%"struct.llvm::SmallVectorStorage" = type { [8 x i8] }
%"class.llvm::SmallPtrSet" = type { %"class.llvm::SmallPtrSetImpl.base", [1 x ptr] }
%"class.llvm::SmallPtrSetImpl.base" = type { %"class.llvm::SmallPtrSetImplBase.base" }
%"class.llvm::SmallPtrSetImplBase.base" = type <{ ptr, ptr, i32, i32, i32 }>
%"struct.llvm::cl::GenericOptionValue" = type { ptr }
%"class.std::_Function_base" = type { %"union.std::_Any_data", ptr }
%"union.std::_Any_data" = type { %"union.std::_Nocopy_types" }
%"union.std::_Nocopy_types" = type { { i64, i64 } }
%"class.llvm::cl::opt.261" = type { %"class.llvm::cl::Option", %"class.llvm::cl::opt_storage.262", %"class.llvm::RegisterPassParser", %"class.std::function.275" }
%"class.llvm::cl::opt_storage.262" = type { ptr, %"struct.llvm::cl::OptionValue.263" }
%"struct.llvm::cl::OptionValue.263" = type { %"struct.llvm::cl::OptionValueBase.base.267", [7 x i8] }
%"struct.llvm::cl::OptionValueBase.base.267" = type { %"class.llvm::cl::OptionValueCopy.base.266" }
%"class.llvm::cl::OptionValueCopy.base.266" = type <{ %"struct.llvm::cl::GenericOptionValue", ptr, i8 }>
%"class.llvm::RegisterPassParser" = type { %"class.llvm::MachinePassRegistryListener", %"class.llvm::cl::parser.269" }
%"class.llvm::MachinePassRegistryListener" = type { ptr }
%"class.llvm::cl::parser.269" = type { %"class.llvm::cl::generic_parser_base", %"class.llvm::SmallVector.270" }
%"class.llvm::cl::generic_parser_base" = type { ptr, ptr }
%"class.llvm::SmallVector.270" = type { %"class.llvm::SmallVectorImpl.271", %"struct.llvm::SmallVectorStorage.274" }
%"class.llvm::SmallVectorImpl.271" = type { %"class.llvm::SmallVectorTemplateBase.272" }
%"class.llvm::SmallVectorTemplateBase.272" = type { %"class.llvm::SmallVectorTemplateCommon.273" }
%"class.llvm::SmallVectorTemplateCommon.273" = type { %"class.llvm::SmallVectorBase" }
%"struct.llvm::SmallVectorStorage.274" = type { [448 x i8] }
%"class.std::function.275" = type { %"class.std::_Function_base", ptr }
%"class.llvm::cl::OptionValueCopy.265" = type <{ %"struct.llvm::cl::GenericOptionValue", ptr, i8, [7 x i8] }>

@_ZTVN4llvm2cl18GenericOptionValueE = external unnamed_addr constant { [4 x ptr] }, align 8
@_ZTVN4llvm2cl11OptionValueIPFPNS_12FunctionPassEvEEE = linkonce_odr unnamed_addr constant { [4 x ptr] } { [4 x ptr] [ptr null, ptr null, ptr @_ZNK4llvm2cl15OptionValueCopyIPFPNS_12FunctionPassEvEE7compareERKNS0_18GenericOptionValueE, ptr @_ZN4llvm2cl18GenericOptionValue6anchorEv] }, comdat, align 8

; Function Attrs: mustprogress nounwind uwtable
define linkonce_odr hidden void @_ZN4llvm2cl18GenericOptionValueC2Ev(ptr noundef nonnull align 8 dereferenceable(8) %0) unnamed_addr #1 comdat align 2 {
  %2 = alloca ptr, align 8
  store ptr %0, ptr %2, align 8
  %3 = load ptr, ptr %2, align 8
  store ptr getelementptr inbounds inrange(-16, 16) ({ [4 x ptr] }, ptr @_ZTVN4llvm2cl18GenericOptionValueE, i32 0, i32 0, i32 2), ptr %3, align 8
  ret void
}

; Function Attrs: mustprogress nounwind uwtable
define linkonce_odr hidden void @_ZN4llvm2cl15OptionValueCopyIPFPNS_12FunctionPassEvEEC2Ev(ptr noundef nonnull align 8 dereferenceable(17) %0) unnamed_addr #1 comdat align 2 {
  %2 = alloca ptr, align 8
  store ptr %0, ptr %2, align 8
  %3 = load ptr, ptr %2, align 8
  call void @_ZN4llvm2cl18GenericOptionValueC2Ev(ptr noundef nonnull align 8 dereferenceable(8) %3) #2
  store ptr getelementptr inbounds inrange(-16, 16) ({ [4 x ptr] }, ptr @_ZTVN4llvm2cl15OptionValueCopyIPFPNS_12FunctionPassEvEEE, i32 0, i32 0, i32 2), ptr %3, align 8
  %4 = getelementptr inbounds nuw %"class.llvm::cl::OptionValueCopy.265", ptr %3, i32 0, i32 2
  store i8 0, ptr %4, align 8
  ret void
}

; Function Attrs: mustprogress nounwind uwtable
define linkonce_odr hidden void @_ZN4llvm2cl15OptionValueCopyIPFPNS_12FunctionPassEvEE8setValueERKS5_(ptr noundef nonnull align 8 dereferenceable(17) %0, ptr noundef nonnull align 8 dereferenceable(8) %1) #1 comdat align 2 {
  %3 = alloca ptr, align 8
  %4 = alloca ptr, align 8
  store ptr %0, ptr %3, align 8
  store ptr %1, ptr %4, align 8
  %5 = load ptr, ptr %3, align 8
  %6 = getelementptr inbounds nuw %"class.llvm::cl::OptionValueCopy.265", ptr %5, i32 0, i32 2
  store i8 1, ptr %6, align 8
  %7 = load ptr, ptr %4, align 8
  %8 = load ptr, ptr %7, align 8
  %9 = getelementptr inbounds nuw %"class.llvm::cl::OptionValueCopy.265", ptr %5, i32 0, i32 1
  store ptr %8, ptr %9, align 8
  ret void
}

; Function Attrs: mustprogress nounwind uwtable
define linkonce_odr hidden void @_ZN4llvm2cl15OptionValueBaseIPFPNS_12FunctionPassEvELb0EEC2Ev(ptr noundef nonnull align 8 dereferenceable(17) %0) unnamed_addr #1 comdat align 2 {
  %2 = alloca ptr, align 8
  store ptr %0, ptr %2, align 8
  %3 = load ptr, ptr %2, align 8
  call void @_ZN4llvm2cl15OptionValueCopyIPFPNS_12FunctionPassEvEEC2Ev(ptr noundef nonnull align 8 dereferenceable(17) %3) #2
  store ptr getelementptr inbounds inrange(-16, 16) ({ [4 x ptr] }, ptr @_ZTVN4llvm2cl15OptionValueBaseIPFPNS_12FunctionPassEvELb0EEE, i32 0, i32 0, i32 2), ptr %3, align 8
  ret void
}

; Function Attrs: mustprogress nounwind uwtable
define linkonce_odr hidden void @_ZNK4llvm2cl19generic_parser_base15printOptionDiffINS0_11OptionValueIPFPNS_12FunctionPassEvEEEEEvRKNS0_6OptionERKT_SE_m(ptr noundef nonnull align 8 dereferenceable(16) %0, ptr noundef nonnull align 8 dereferenceable(128) %1, ptr noundef nonnull align 8 dereferenceable(24) %2, ptr noundef nonnull align 8 dereferenceable(24) %3, i64 noundef %4) #1 comdat align 2 {
  %6 = alloca ptr, align 8
  %7 = alloca ptr, align 8
  %8 = alloca ptr, align 8
  %9 = alloca ptr, align 8
  %10 = alloca i64, align 8
  store ptr %0, ptr %6, align 8
  store ptr %1, ptr %7, align 8
  store ptr %2, ptr %8, align 8
  store ptr %3, ptr %9, align 8
  store i64 %4, ptr %10, align 8
  %11 = load ptr, ptr %6, align 8
  %12 = load ptr, ptr %7, align 8
  %13 = load ptr, ptr %8, align 8
  %14 = load ptr, ptr %9, align 8
  %15 = load i64, ptr %10, align 8
  call void @_ZNK4llvm2cl19generic_parser_base22printGenericOptionDiffERKNS0_6OptionERKNS0_18GenericOptionValueES7_m(ptr noundef nonnull align 8 dereferenceable(16) %11, ptr noundef nonnull align 8 dereferenceable(128) %12, ptr noundef nonnull align 8 dereferenceable(8) %13, ptr noundef nonnull align 8 dereferenceable(8) %14, i64 noundef %15)
  ret void
}

; Function Attrs: mustprogress nounwind uwtable
define linkonce_odr hidden void @_ZN4llvm2cl11OptionValueIPFPNS_12FunctionPassEvEEC2ERKS5_(ptr noundef nonnull align 8 dereferenceable(24) %0, ptr noundef nonnull align 8 dereferenceable(8) %1) unnamed_addr #1 comdat align 2 {
  %3 = alloca ptr, align 8
  %4 = alloca ptr, align 8
  store ptr %0, ptr %3, align 8
  store ptr %1, ptr %4, align 8
  %5 = load ptr, ptr %3, align 8
  call void @_ZN4llvm2cl15OptionValueBaseIPFPNS_12FunctionPassEvELb0EEC2Ev(ptr noundef nonnull align 8 dereferenceable(17) %5) #2
  store ptr getelementptr inbounds inrange(-16, 16) ({ [4 x ptr] }, ptr @_ZTVN4llvm2cl11OptionValueIPFPNS_12FunctionPassEvEEE, i32 0, i32 0, i32 2), ptr %5, align 8
  %6 = load ptr, ptr %4, align 8
  call void @_ZN4llvm2cl15OptionValueCopyIPFPNS_12FunctionPassEvEE8setValueERKS5_(ptr noundef nonnull align 8 dereferenceable(17) %5, ptr noundef nonnull align 8 dereferenceable(8) %6)
  ret void
}

; Function Attrs: mustprogress nounwind uwtable
define internal void @_ZN4llvm2cl15printOptionDiffINS_18RegisterPassParserIN12_GLOBAL__N_119RVVRegisterRegAllocEEEPFPNS_12FunctionPassEvEEEvRKNS0_6OptionERKNS0_19generic_parser_baseERKT0_RKNS0_11OptionValueISG_EEm(ptr noundef nonnull align 8 dereferenceable(128) %0, ptr noundef nonnull align 8 dereferenceable(16) %1, ptr noundef nonnull align 8 dereferenceable(8) %2, ptr noundef nonnull align 8 dereferenceable(24) %3, i64 noundef %4) #1 {
  %6 = alloca ptr, align 8
  %7 = alloca ptr, align 8
  %8 = alloca ptr, align 8
  %9 = alloca ptr, align 8
  %10 = alloca i64, align 8
  %11 = alloca %"struct.llvm::cl::OptionValue.263", align 8
  store ptr %0, ptr %6, align 8
  store ptr %1, ptr %7, align 8
  store ptr %2, ptr %8, align 8
  store ptr %3, ptr %9, align 8
  store i64 %4, ptr %10, align 8
  %12 = load ptr, ptr %8, align 8
  call void @_ZN4llvm2cl11OptionValueIPFPNS_12FunctionPassEvEEC2ERKS5_(ptr noundef nonnull align 8 dereferenceable(24) %11, ptr noundef nonnull align 8 dereferenceable(8) %12)
  %13 = load ptr, ptr %7, align 8
  %14 = load ptr, ptr %6, align 8
  %15 = load ptr, ptr %9, align 8
  %16 = load i64, ptr %10, align 8
  call void @_ZNK4llvm2cl19generic_parser_base15printOptionDiffINS0_11OptionValueIPFPNS_12FunctionPassEvEEEEEvRKNS0_6OptionERKT_SE_m(ptr noundef nonnull align 8 dereferenceable(16) %13, ptr noundef nonnull align 8 dereferenceable(128) %14, ptr noundef nonnull align 8 dereferenceable(24) %11, ptr noundef nonnull align 8 dereferenceable(24) %15, i64 noundef %16)
  ret void
}

; Function Attrs: mustprogress nounwind uwtable
define linkonce_odr hidden noundef zeroext i1 @_ZNK4llvm2cl15OptionValueCopyIPFPNS_12FunctionPassEvEE7compareERKS5_(ptr noundef nonnull align 8 dereferenceable(17) %0, ptr noundef nonnull align 8 dereferenceable(8) %1) #1 comdat align 2 {
  %3 = alloca ptr, align 8
  %4 = alloca ptr, align 8
  store ptr %0, ptr %3, align 8
  store ptr %1, ptr %4, align 8
  %5 = load ptr, ptr %3, align 8
  %6 = getelementptr inbounds nuw %"class.llvm::cl::OptionValueCopy.265", ptr %5, i32 0, i32 2
  %7 = load i8, ptr %6, align 8
  %8 = trunc i8 %7 to i1
  br i1 %8, label %9, label %15

9:                                                ; preds = %2
  %10 = getelementptr inbounds nuw %"class.llvm::cl::OptionValueCopy.265", ptr %5, i32 0, i32 1
  %11 = load ptr, ptr %10, align 8
  %12 = load ptr, ptr %4, align 8
  %13 = load ptr, ptr %12, align 8
  %14 = icmp eq ptr %11, %13
  br label %15

15:                                               ; preds = %9, %2
  %16 = phi i1 [ false, %2 ], [ %14, %9 ]
  ret i1 %16
}

; Function Attrs: mustprogress nounwind uwtable
define linkonce_odr hidden noundef ptr @_ZNK4llvm2cl11opt_storageIPFPNS_12FunctionPassEvELb0ELb0EE8getValueEv(ptr noundef nonnull align 8 dereferenceable(32) %0) #1 comdat align 2 {
  %2 = alloca ptr, align 8
  store ptr %0, ptr %2, align 8
  %3 = load ptr, ptr %2, align 8
  %4 = getelementptr inbounds nuw %"class.llvm::cl::opt_storage.262", ptr %3, i32 0, i32 0
  %5 = load ptr, ptr %4, align 8
  ret ptr %5
}

; Function Attrs: mustprogress nounwind uwtable
define linkonce_odr hidden noundef nonnull align 8 dereferenceable(24) ptr @_ZNK4llvm2cl11opt_storageIPFPNS_12FunctionPassEvELb0ELb0EE10getDefaultEv(ptr noundef nonnull align 8 dereferenceable(32) %0) #1 comdat align 2 {
  %2 = alloca ptr, align 8
  store ptr %0, ptr %2, align 8
  %3 = load ptr, ptr %2, align 8
  %4 = getelementptr inbounds nuw %"class.llvm::cl::opt_storage.262", ptr %3, i32 0, i32 1
  ret ptr %4
}

; Function Attrs: mustprogress nounwind uwtable
define internal void @_ZNK4llvm2cl3optIPFPNS_12FunctionPassEvELb0ENS_18RegisterPassParserIN12_GLOBAL__N_119RVVRegisterRegAllocEEEE16printOptionValueEmb(ptr noundef nonnull align 8 dereferenceable(680) %0, i64 noundef %1, i1 noundef zeroext %2) unnamed_addr #1 align 2 {
  %4 = alloca ptr, align 8
  %5 = alloca i64, align 8
  %6 = alloca i8, align 1
  %7 = alloca ptr, align 8
  %8 = alloca ptr, align 8
  store ptr %0, ptr %4, align 8
  store i64 %1, ptr %5, align 8
  %9 = zext i1 %2 to i8
  store i8 %9, ptr %6, align 1
  %10 = load ptr, ptr %4, align 8
  %11 = load i8, ptr %6, align 1
  %12 = trunc i8 %11 to i1
  br i1 %12, label %20, label %13

13:                                               ; preds = %3
  %14 = getelementptr inbounds i8, ptr %10, i64 128
  %15 = call noundef nonnull align 8 dereferenceable(24) ptr @_ZNK4llvm2cl11opt_storageIPFPNS_12FunctionPassEvELb0ELb0EE10getDefaultEv(ptr noundef nonnull align 8 dereferenceable(32) %14)
  %16 = getelementptr inbounds i8, ptr %10, i64 128
  %17 = call noundef ptr @_ZNK4llvm2cl11opt_storageIPFPNS_12FunctionPassEvELb0ELb0EE8getValueEv(ptr noundef nonnull align 8 dereferenceable(32) %16)
  store ptr %17, ptr %7, align 8
  %18 = call noundef zeroext i1 @_ZNK4llvm2cl15OptionValueCopyIPFPNS_12FunctionPassEvEE7compareERKS5_(ptr noundef nonnull align 8 dereferenceable(17) %15, ptr noundef nonnull align 8 dereferenceable(8) %7)
  %19 = xor i1 %18, true
  br label %20

20:                                               ; preds = %13, %3
  %21 = phi i1 [ true, %3 ], [ %19, %13 ]
  br i1 %21, label %22, label %30

22:                                               ; preds = %20
  %23 = getelementptr inbounds nuw %"class.llvm::cl::opt.261", ptr %10, i32 0, i32 2
  %24 = getelementptr inbounds i8, ptr %23, i64 8
  %25 = getelementptr inbounds i8, ptr %10, i64 128
  %26 = call noundef ptr @_ZNK4llvm2cl11opt_storageIPFPNS_12FunctionPassEvELb0ELb0EE8getValueEv(ptr noundef nonnull align 8 dereferenceable(32) %25)
  store ptr %26, ptr %8, align 8
  %27 = getelementptr inbounds i8, ptr %10, i64 128
  %28 = call noundef nonnull align 8 dereferenceable(24) ptr @_ZNK4llvm2cl11opt_storageIPFPNS_12FunctionPassEvELb0ELb0EE10getDefaultEv(ptr noundef nonnull align 8 dereferenceable(32) %27)
  %29 = load i64, ptr %5, align 8
  call void @_ZN4llvm2cl15printOptionDiffINS_18RegisterPassParserIN12_GLOBAL__N_119RVVRegisterRegAllocEEEPFPNS_12FunctionPassEvEEEvRKNS0_6OptionERKNS0_19generic_parser_baseERKT0_RKNS0_11OptionValueISG_EEm(ptr noundef nonnull align 8 dereferenceable(128) %10, ptr noundef nonnull align 8 dereferenceable(16) %24, ptr noundef nonnull align 8 dereferenceable(8) %8, ptr noundef nonnull align 8 dereferenceable(24) %28, i64 noundef %29)
  br label %30

30:                                               ; preds = %22, %20
  ret void
}