; Function Attrs: mustprogress nounwind uwtable
define internal void @_ZNK4llvm2cl3optIPFPNS_12FunctionPassEvELb0ENS_18RegisterPassParserIN12_GLOBAL__N_119RVVRegisterRegAllocEEEE16printOptionValueEmb(ptr noundef nonnull align 8 dereferenceable(680) %0, i64 noundef %1, i1 noundef zeroext %2) unnamed_addr #0 align 2 {
  %4 = alloca %"struct.llvm::cl::OptionValue.263", align 8
  %.phi.trans.insert = getelementptr inbounds i8, ptr %0, i64 128
  %.pre = load ptr, ptr %.phi.trans.insert, align 8
  br i1 %2, label %.critedge, label %5

5:                                                ; preds = %3
  %6 = getelementptr inbounds i8, ptr %0, i64 152
  %7 = load i8, ptr %6, align 8
  %8 = trunc i8 %7 to i1
  %9 = getelementptr inbounds i8, ptr %0, i64 144
  %10 = load ptr, ptr %9, align 8
  %11 = icmp eq ptr %10, %.pre
  %12 = select i1 %8, i1 %11, i1 false
  br i1 %12, label %17, label %.critedge

.critedge:                                        ; preds = %3, %5
  %13 = getelementptr inbounds i8, ptr %0, i64 168
  %14 = getelementptr inbounds i8, ptr %0, i64 136
  call void @llvm.lifetime.start.p0(i64 24, ptr nonnull %4)
  %15 = getelementptr inbounds nuw i8, ptr %4, i64 16
  store ptr getelementptr inbounds inrange(-16, 16) (i8, ptr @_ZTVN4llvm2cl11OptionValueIPFPNS_12FunctionPassEvEEE, i64 16), ptr %4, align 8
  store i8 1, ptr %15, align 8
  %16 = getelementptr inbounds nuw i8, ptr %4, i64 8
  store ptr %.pre, ptr %16, align 8
  call void @_ZNK4llvm2cl19generic_parser_base22printGenericOptionDiffERKNS0_6OptionERKNS0_18GenericOptionValueES7_m(ptr noundef nonnull align 8 dereferenceable(16) %13, ptr noundef nonnull align 8 dereferenceable(128) %0, ptr noundef nonnull align 8 dereferenceable(8) %4, ptr noundef nonnull align 8 dereferenceable(8) %14, i64 noundef %1) #24
  call void @llvm.lifetime.end.p0(i64 24, ptr nonnull %4)
  br label %17

17:                                               ; preds = %.critedge, %5
  ret void
}